; Function Attrs: nounwind uwtable
define range(i32 0, 2) i32 @TS_RESP_set_status_info(ptr noundef captures(none) %0, ptr noundef %1) local_unnamed_addr #0 {
  %3 = load ptr, ptr %0, align 8, !tbaa !3
  %4 = icmp eq ptr %3, %1
  br i1 %4, label %11, label %5

5:                                                ; preds = %2
  %6 = tail call ptr @TS_STATUS_INFO_dup(ptr noundef %1) #4
  %7 = icmp eq ptr %6, null
  br i1 %7, label %8, label %9

8:                                                ; preds = %5
  tail call void @ERR_new() #4
  tail call void @ERR_set_debug(ptr noundef nonnull @.str, i32 noundef 25, ptr noundef nonnull @__func__.TS_RESP_set_status_info) #4
  tail call void (i32, i32, ptr, ...) @ERR_set_error(i32 noundef 47, i32 noundef 524335, ptr noundef null) #4
  br label %11

9:                                                ; preds = %5
  %10 = load ptr, ptr %0, align 8, !tbaa !3
  tail call void @TS_STATUS_INFO_free(ptr noundef %10) #4
  store ptr %6, ptr %0, align 8, !tbaa !3
  br label %11

11:                                               ; preds = %2, %9, %8
  %.0 = phi i32 [ 0, %8 ], [ 1, %9 ], [ 1, %2 ]
  ret i32 %.0
}